EXPORTS 
	??_R0H@8 	 DATA
	?_OptionsStorage@?1??__local_stdio_printf_options@@9@4_KA 	 DATA
	??$?6U?$char_traits@D@std@@@std@@YAAEAV?$basic_ostream@DU?$char_traits@D@std@@@0@AEAV10@PEBD@Z
	??$endl@DU?$char_traits@D@std@@@std@@YAAEAV?$basic_ostream@DU?$char_traits@D@std@@@0@AEAV10@@Z
	??0Image@@QEAA@AEBH0@Z
	??0Image@@QEAA@AEBV0@@Z
	??0_Sentry_base@?$basic_ostream@DU?$char_traits@D@std@@@std@@QEAA@AEAV12@@Z
	??0sentry@?$basic_ostream@DU?$char_traits@D@std@@@std@@QEAA@AEAV12@@Z
	??1Image@@QEAA@XZ
	??1_Sentry_base@?$basic_ostream@DU?$char_traits@D@std@@@std@@QEAA@XZ
	??1sentry@?$basic_ostream@DU?$char_traits@D@std@@@std@@QEAA@XZ
	??4Image@@QEAAAEAV0@AEBV0@@Z
	??6@YAAEAV?$basic_ostream@DU?$char_traits@D@std@@@std@@AEAV01@AEBVImage@@@Z
	??7Image@@QEAA?AV0@XZ
	??8Image@@QEBA_NAEBV0@@Z
	??9Image@@QEBA_NAEBV0@@Z
	??Bsentry@?$basic_ostream@DU?$char_traits@D@std@@@std@@QEBA_NXZ
	??D@YA?AVImage@@AEBV0@0@Z
	??D@YA?AVImage@@AEBV0@AEB_N@Z
	??D@YA?AVImage@@AEB_NAEBV0@@Z
	??H@YA?AVImage@@AEBV0@0@Z
	??H@YA?AVImage@@AEBV0@AEB_N@Z
	??H@YA?AVImage@@AEB_NAEBV0@@Z
	??RImage@@QEAAXAEBH0AEB_N@Z
	??RImage@@QEBA?B_NAEBH0@Z
	??XImage@@QEAAAEAV0@AEBV0@@Z
	??XImage@@QEAAAEAV0@AEB_N@Z
	??YImage@@QEAAAEAV0@AEBV0@@Z
	??YImage@@QEAAAEAV0@AEB_N@Z
	?__empty_global_delete@@YAXPEAX@Z
	?__empty_global_delete@@YAXPEAX_K@Z
	?eof@?$char_traits@D@std@@SAHXZ
	?eq_int_type@?$char_traits@D@std@@SA_NAEBH0@Z
	?getColumns@Image@@QEBAHXZ
	?getFillFactor@Image@@QEBANXZ
	?getLines@Image@@QEBAHXZ
	?length@?$char_traits@D@std@@SA_KQEBD@Z
	?readDouble@utils@@YANPEBDNN@Z
	?readInt@utils@@YAHPEBDHH@Z
	?strchr@@YAPEADQEADH@Z
	__JustMyCode_Default
	__local_stdio_printf_options
	_vfprintf_l
	printf
